target datalayout = "e-m:e-p270:32:32-p271:32:32-p272:64:64-i64:64-i128:128-f80:128-n8:16:32:64-S128"
target triple = "x86_64-pc-linux-gnu"

@base_yyout = external global ptr, align 8
@connection = external global ptr, align 8
@.str.8 = private unnamed_addr constant [5 x i8] c"NULL\00", align 1
@questionmarks = external global i8, align 1
@.str.14 = private unnamed_addr constant [33 x i8] c"{ ECPGprepare(__LINE__, %s, %d, \00", align 1
@.str.15 = private unnamed_addr constant [3 x i8] c", \00", align 1
@.str.16 = private unnamed_addr constant [3 x i8] c");\00", align 1

; Function Attrs: nounwind uwtable
define dso_local void @output_prepare_statement(ptr noundef %0, ptr noundef %1) #0 {
  %3 = alloca ptr, align 8
  %4 = alloca ptr, align 8
  store ptr %0, ptr %3, align 8
  store ptr %1, ptr %4, align 8
  %5 = load ptr, ptr @base_yyout, align 8
  %6 = load ptr, ptr @connection, align 8
  %7 = icmp ne ptr %6, null
  br i1 %7, label %8, label %10

8:                                                ; preds = %2
  %9 = load ptr, ptr @connection, align 8
  br label %11

10:                                               ; preds = %2
  br label %11

11:                                               ; preds = %10, %8
  %12 = phi ptr [ %9, %8 ], [ @.str.8, %10 ]
  %13 = load i8, ptr @questionmarks, align 1, !range !6, !noundef !7
  %14 = trunc i8 %13 to i1
  %15 = zext i1 %14 to i32
  %16 = call i32 (ptr, ptr, ...) @pg_fprintf(ptr noundef %5, ptr noundef @.str.14, ptr noundef %12, i32 noundef %15)
  %17 = load ptr, ptr %3, align 8
  call void @output_escaped_str(ptr noundef %17, i1 noundef zeroext true)
  %18 = load ptr, ptr @base_yyout, align 8
  %19 = call i32 @fputs(ptr noundef @.str.15, ptr noundef %18)
  %20 = load ptr, ptr %4, align 8
  call void @output_escaped_str(ptr noundef %20, i1 noundef zeroext true)
  %21 = load ptr, ptr @base_yyout, align 8
  %22 = call i32 @fputs(ptr noundef @.str.16, ptr noundef %21)
  call void @whenever_action(i32 noundef 2)
  ret void
}