; Function Attrs: nounwind uwtable
define dso_local void @output_prepare_statement(ptr noundef readonly captures(none) %0, ptr noundef readonly captures(none) %1) local_unnamed_addr #0 {
  %3 = load ptr, ptr @base_yyout, align 8
  %4 = load ptr, ptr @connection, align 8
  %.not = icmp eq ptr %4, null
  %5 = select i1 %.not, ptr @.str.8, ptr %4
  %6 = load i8, ptr @questionmarks, align 1, !range !7, !noundef !8
  %7 = zext nneg i8 %6 to i32
  %8 = tail call i32 (ptr, ptr, ...) @pg_fprintf(ptr noundef %3, ptr noundef nonnull @.str.14, ptr noundef nonnull %5, i32 noundef %7) #7
  tail call fastcc void @output_escaped_str(ptr noundef %0, i1 noundef zeroext true)
  %9 = load ptr, ptr @base_yyout, align 8
  %10 = tail call i64 @fwrite(ptr nonnull @.str.15, i64 2, i64 1, ptr %9)
  tail call fastcc void @output_escaped_str(ptr noundef %1, i1 noundef zeroext true)
  %11 = load ptr, ptr @base_yyout, align 8
  %12 = tail call i64 @fwrite(ptr nonnull @.str.16, i64 2, i64 1, ptr %11)
  tail call void @whenever_action(i32 noundef 2)
  ret void
}